; ModuleID = '23/441.cpp'
source_filename = "23/441.cpp"
target datalayout = "e-m:e-p270:32:32-p271:32:32-p272:64:64-i64:64-f80:128-n8:16:32:64-S128"
target triple = "x86_64-pc-linux-gnu"

%"class.std::ios_base::Init" = type { i8 }
%"class.std::basic_istream" = type { i32 (...)**, i64, %"class.std::basic_ios" }
%"class.std::basic_ios" = type { %"class.std::ios_base", %"class.std::basic_ostream"*, i8, i8, %"class.std::basic_streambuf"*, %"class.std::ctype"*, %"class.std::num_put"*, %"class.std::num_get"* }
%"class.std::ios_base" = type { i32 (...)**, i64, i64, i32, i32, i32, %"struct.std::ios_base::_Callback_list"*, %"struct.std::ios_base::_Words", [8 x %"struct.std::ios_base::_Words"], i32, %"struct.std::ios_base::_Words"*, %"class.std::locale" }
%"struct.std::ios_base::_Callback_list" = type { %"struct.std::ios_base::_Callback_list"*, void (i32, %"class.std::ios_base"*, i32)*, i32, i32 }
%"struct.std::ios_base::_Words" = type { i8*, i64 }
%"class.std::locale" = type { %"class.std::locale::_Impl"* }
%"class.std::locale::_Impl" = type { i32, %"class.std::locale::facet"**, i64, %"class.std::locale::facet"**, i8** }
%"class.std::locale::facet" = type <{ i32 (...)**, i32, [4 x i8] }>
%"class.std::basic_ostream" = type { i32 (...)**, %"class.std::basic_ios" }
%"class.std::basic_streambuf" = type { i32 (...)**, i8*, i8*, i8*, i8*, i8*, i8*, %"class.std::locale" }
%"class.std::ctype" = type <{ %"class.std::locale::facet.base", [4 x i8], %struct.__locale_struct*, i8, [7 x i8], i32*, i32*, i16*, i8, [256 x i8], [256 x i8], i8, [6 x i8] }>
%"class.std::locale::facet.base" = type <{ i32 (...)**, i32 }>
%struct.__locale_struct = type { [13 x %struct.__locale_data*], i16*, i32*, i32*, [13 x i8*] }
%struct.__locale_data = type opaque
%"class.std::num_put" = type { %"class.std::locale::facet.base", [4 x i8] }
%"class.std::num_get" = type { %"class.std::locale::facet.base", [4 x i8] }

@_ZStL8__ioinit = internal global %"class.std::ios_base::Init" zeroinitializer, align 1
@__dso_handle = external hidden global i8
@_ZSt3cin = external dso_local global %"class.std::basic_istream", align 8
@_ZSt4cout = external dso_local global %"class.std::basic_ostream", align 8
@llvm.global_ctors = appending global [1 x { i32, void ()*, i8* }] [{ i32, void ()*, i8* } { i32 65535, void ()* @_GLOBAL__sub_I_441.cpp, i8* null }]

; Function Attrs: noinline uwtable
define internal void @__cxx_global_var_init() #0 section ".text.startup" {
  call void @_ZNSt8ios_base4InitC1Ev(%"class.std::ios_base::Init"* @_ZStL8__ioinit)
  %1 = call i32 @__cxa_atexit(void (i8*)* bitcast (void (%"class.std::ios_base::Init"*)* @_ZNSt8ios_base4InitD1Ev to void (i8*)*), i8* getelementptr inbounds (%"class.std::ios_base::Init", %"class.std::ios_base::Init"* @_ZStL8__ioinit, i32 0, i32 0), i8* @__dso_handle) #3
  ret void
}

declare dso_local void @_ZNSt8ios_base4InitC1Ev(%"class.std::ios_base::Init"*) unnamed_addr #1

; Function Attrs: nounwind
declare dso_local void @_ZNSt8ios_base4InitD1Ev(%"class.std::ios_base::Init"*) unnamed_addr #2

; Function Attrs: nounwind
declare dso_local i32 @__cxa_atexit(void (i8*)*, i8*, i8*) #3

; Function Attrs: noinline norecurse uwtable
define dso_local i32 @main() #4 {
  %1 = alloca i32, align 4
  %2 = alloca i32, align 4
  %3 = alloca i32, align 4
  %4 = alloca i32, align 4
  %5 = alloca [101 x i8], align 16
  %6 = alloca [101 x [101 x i8]], align 16
  store i32 0, i32* %1, align 4
  store i32 -1, i32* %4, align 4
  br label %7

7:                                                ; preds = %19, %0
  %8 = getelementptr inbounds [101 x i8], [101 x i8]* %5, i64 0, i64 0
  %9 = call dereferenceable(280) %"class.std::basic_istream"* @_ZStrsIcSt11char_traitsIcEERSt13basic_istreamIT_T0_ES6_PS3_(%"class.std::basic_istream"* dereferenceable(280) @_ZSt3cin, i8* %8)
  %10 = bitcast %"class.std::basic_istream"* %9 to i8**
  %11 = load i8*, i8** %10, align 8
  %12 = getelementptr i8, i8* %11, i64 -24
  %13 = bitcast i8* %12 to i64*
  %14 = load i64, i64* %13, align 8
  %15 = bitcast %"class.std::basic_istream"* %9 to i8*
  %16 = getelementptr inbounds i8, i8* %15, i64 %14
  %17 = bitcast i8* %16 to %"class.std::basic_ios"*
  %18 = call zeroext i1 @_ZNKSt9basic_iosIcSt11char_traitsIcEEcvbEv(%"class.std::basic_ios"* %17)
  br i1 %18, label %19, label %27

19:                                               ; preds = %7
  %20 = load i32, i32* %4, align 4
  %21 = add nsw i32 %20, 1
  store i32 %21, i32* %4, align 4
  %22 = sext i32 %21 to i64
  %23 = getelementptr inbounds [101 x [101 x i8]], [101 x [101 x i8]]* %6, i64 0, i64 %22
  %24 = getelementptr inbounds [101 x i8], [101 x i8]* %23, i64 0, i64 0
  %25 = getelementptr inbounds [101 x i8], [101 x i8]* %5, i64 0, i64 0
  %26 = call i8* @strcpy(i8* %24, i8* %25) #3
  br label %7

27:                                               ; preds = %7
  store i32 0, i32* %2, align 4
  %28 = load i32, i32* %4, align 4
  store i32 %28, i32* %3, align 4
  br label %29

29:                                               ; preds = %55, %27
  %30 = load i32, i32* %2, align 4
  %31 = load i32, i32* %3, align 4
  %32 = icmp slt i32 %30, %31
  br i1 %32, label %33, label %60

33:                                               ; preds = %29
  %34 = getelementptr inbounds [101 x i8], [101 x i8]* %5, i64 0, i64 0
  %35 = load i32, i32* %2, align 4
  %36 = sext i32 %35 to i64
  %37 = getelementptr inbounds [101 x [101 x i8]], [101 x [101 x i8]]* %6, i64 0, i64 %36
  %38 = getelementptr inbounds [101 x i8], [101 x i8]* %37, i64 0, i64 0
  %39 = call i8* @strcpy(i8* %34, i8* %38) #3
  %40 = load i32, i32* %2, align 4
  %41 = sext i32 %40 to i64
  %42 = getelementptr inbounds [101 x [101 x i8]], [101 x [101 x i8]]* %6, i64 0, i64 %41
  %43 = getelementptr inbounds [101 x i8], [101 x i8]* %42, i64 0, i64 0
  %44 = load i32, i32* %3, align 4
  %45 = sext i32 %44 to i64
  %46 = getelementptr inbounds [101 x [101 x i8]], [101 x [101 x i8]]* %6, i64 0, i64 %45
  %47 = getelementptr inbounds [101 x i8], [101 x i8]* %46, i64 0, i64 0
  %48 = call i8* @strcpy(i8* %43, i8* %47) #3
  %49 = load i32, i32* %3, align 4
  %50 = sext i32 %49 to i64
  %51 = getelementptr inbounds [101 x [101 x i8]], [101 x [101 x i8]]* %6, i64 0, i64 %50
  %52 = getelementptr inbounds [101 x i8], [101 x i8]* %51, i64 0, i64 0
  %53 = getelementptr inbounds [101 x i8], [101 x i8]* %5, i64 0, i64 0
  %54 = call i8* @strcpy(i8* %52, i8* %53) #3
  br label %55

55:                                               ; preds = %33
  %56 = load i32, i32* %2, align 4
  %57 = add nsw i32 %56, 1
  store i32 %57, i32* %2, align 4
  %58 = load i32, i32* %3, align 4
  %59 = add nsw i32 %58, -1
  store i32 %59, i32* %3, align 4
  br label %29

60:                                               ; preds = %29
  store i32 0, i32* %2, align 4
  br label %61

61:                                               ; preds = %72, %60
  %62 = load i32, i32* %2, align 4
  %63 = load i32, i32* %4, align 4
  %64 = icmp slt i32 %62, %63
  br i1 %64, label %65, label %75

65:                                               ; preds = %61
  %66 = load i32, i32* %2, align 4
  %67 = sext i32 %66 to i64
  %68 = getelementptr inbounds [101 x [101 x i8]], [101 x [101 x i8]]* %6, i64 0, i64 %67
  %69 = getelementptr inbounds [101 x i8], [101 x i8]* %68, i64 0, i64 0
  %70 = call dereferenceable(272) %"class.std::basic_ostream"* @_ZStlsISt11char_traitsIcEERSt13basic_ostreamIcT_ES5_PKc(%"class.std::basic_ostream"* dereferenceable(272) @_ZSt4cout, i8* %69)
  %71 = call dereferenceable(272) %"class.std::basic_ostream"* @_ZStlsISt11char_traitsIcEERSt13basic_ostreamIcT_ES5_c(%"class.std::basic_ostream"* dereferenceable(272) %70, i8 signext 32)
  br label %72

72:                                               ; preds = %65
  %73 = load i32, i32* %2, align 4
  %74 = add nsw i32 %73, 1
  store i32 %74, i32* %2, align 4
  br label %61

75:                                               ; preds = %61
  %76 = load i32, i32* %4, align 4
  %77 = sext i32 %76 to i64
  %78 = getelementptr inbounds [101 x [101 x i8]], [101 x [101 x i8]]* %6, i64 0, i64 %77
  %79 = getelementptr inbounds [101 x i8], [101 x i8]* %78, i64 0, i64 0
  %80 = call dereferenceable(272) %"class.std::basic_ostream"* @_ZStlsISt11char_traitsIcEERSt13basic_ostreamIcT_ES5_PKc(%"class.std::basic_ostream"* dereferenceable(272) @_ZSt4cout, i8* %79)
  %81 = call dereferenceable(272) %"class.std::basic_ostream"* @_ZNSolsEPFRSoS_E(%"class.std::basic_ostream"* %80, %"class.std::basic_ostream"* (%"class.std::basic_ostream"*)* @_ZSt4endlIcSt11char_traitsIcEERSt13basic_ostreamIT_T0_ES6_)
  ret i32 0
}

declare dso_local dereferenceable(280) %"class.std::basic_istream"* @_ZStrsIcSt11char_traitsIcEERSt13basic_istreamIT_T0_ES6_PS3_(%"class.std::basic_istream"* dereferenceable(280), i8*) #1

declare dso_local zeroext i1 @_ZNKSt9basic_iosIcSt11char_traitsIcEEcvbEv(%"class.std::basic_ios"*) #1

; Function Attrs: nounwind
declare dso_local i8* @strcpy(i8*, i8*) #2

declare dso_local dereferenceable(272) %"class.std::basic_ostream"* @_ZStlsISt11char_traitsIcEERSt13basic_ostreamIcT_ES5_c(%"class.std::basic_ostream"* dereferenceable(272), i8 signext) #1

declare dso_local dereferenceable(272) %"class.std::basic_ostream"* @_ZStlsISt11char_traitsIcEERSt13basic_ostreamIcT_ES5_PKc(%"class.std::basic_ostream"* dereferenceable(272), i8*) #1

declare dso_local dereferenceable(272) %"class.std::basic_ostream"* @_ZNSolsEPFRSoS_E(%"class.std::basic_ostream"*, %"class.std::basic_ostream"* (%"class.std::basic_ostream"*)*) #1

declare dso_local dereferenceable(272) %"class.std::basic_ostream"* @_ZSt4endlIcSt11char_traitsIcEERSt13basic_ostreamIT_T0_ES6_(%"class.std::basic_ostream"* dereferenceable(272)) #1

; Function Attrs: noinline uwtable
define internal void @_GLOBAL__sub_I_441.cpp() #0 section ".text.startup" {
  call void @__cxx_global_var_init()
  ret void
}


!llvm.module.flags = !{!0}
!llvm.ident = !{!1}

!0 = !{i32 1, !"wchar_size", i32 4}
!1 = !{!"clang version 10.0.0-4ubuntu1 "}
